; Function Attrs: nounwind uwtable
define internal void @_ReadBuf(ptr noundef readonly captures(none) %0, ptr noundef captures(none) %1, i64 noundef %2) #0 {
  %4 = getelementptr inbounds nuw i8, ptr %0, i64 592
  %5 = load ptr, ptr %4, align 8
  %6 = getelementptr inbounds nuw i8, ptr %5, i64 48
  %7 = load ptr, ptr %6, align 8
  %8 = getelementptr inbounds nuw i8, ptr %7, i64 40
  %9 = load i64, ptr %8, align 8
  %10 = add i64 %9, %2
  %11 = getelementptr inbounds nuw i8, ptr %7, i64 48
  %12 = load i64, ptr %11, align 8
  %13 = icmp ugt i64 %10, %12
  %14 = sub i64 %12, %9
  %spec.select.i = select i1 %13, i64 %14, i64 %2
  %15 = icmp eq i64 %spec.select.i, 0
  br i1 %15, label %tarRead.exit, label %16

16:                                               ; preds = %3
  %17 = getelementptr inbounds nuw i8, ptr %7, i64 56
  %18 = load ptr, ptr %17, align 8
  %19 = tail call fastcc i64 @_tarReadRaw(ptr noundef %18, ptr noundef %1, i64 noundef %spec.select.i, ptr noundef nonnull %7, ptr noundef null)
  %20 = load i64, ptr %8, align 8
  %21 = add i64 %20, %19
  store i64 %21, ptr %8, align 8
  br label %tarRead.exit

tarRead.exit:                                     ; preds = %3, %16
  %.0.i = phi i64 [ %19, %16 ], [ 0, %3 ]
  %.not = icmp eq i64 %.0.i, %2
  br i1 %.not, label %23, label %22

22:                                               ; preds = %tarRead.exit
  tail call void (i32, i32, ptr, ...) @pg_log_generic(i32 noundef 4, i32 noundef 0, ptr noundef nonnull @.str.22) #17
  tail call void @exit_nicely(i32 noundef 1) #18
  unreachable

23:                                               ; preds = %tarRead.exit
  %24 = getelementptr inbounds nuw i8, ptr %5, i64 8
  %25 = load i64, ptr %24, align 8
  %26 = add i64 %25, %2
  store i64 %26, ptr %24, align 8
  ret void
}